; Function Attrs: mustprogress uwtable
define dso_local void @_ZN29cmInstallRuntimeDependencySet10AddLibraryESt10unique_ptrINS_4ItemESt14default_deleteIS1_EE(ptr noundef nonnull align 8 dereferenceable(160) %0, ptr noundef %1) local_unnamed_addr #5 align 2 {
  %3 = getelementptr inbounds nuw i8, ptr %0, i64 64
  %4 = load ptr, ptr %3, align 8, !tbaa !24
  %5 = getelementptr inbounds nuw i8, ptr %0, i64 72
  %6 = load ptr, ptr %5, align 8, !tbaa !27
  %.not.i.i = icmp eq ptr %4, %6
  br i1 %.not.i.i, label %10, label %7

7:                                                ; preds = %2
  %8 = load i64, ptr %1, align 8, !tbaa !28
  store i64 %8, ptr %4, align 8, !tbaa !28
  store ptr null, ptr %1, align 8, !tbaa !28
  %9 = getelementptr inbounds nuw i8, ptr %4, i64 8
  store ptr %9, ptr %3, align 8, !tbaa !24
  br label %_ZNSt6vectorISt10unique_ptrIN29cmInstallRuntimeDependencySet4ItemESt14default_deleteIS2_EESaIS5_EE9push_backEOS5_.exit

10:                                               ; preds = %2
  %11 = getelementptr inbounds nuw i8, ptr %0, i64 56
  tail call void @_ZNSt6vectorISt10unique_ptrIN29cmInstallRuntimeDependencySet4ItemESt14default_deleteIS2_EESaIS5_EE17_M_realloc_insertIJS5_EEEvN9__gnu_cxx17__normal_iteratorIPS5_S7_EEDpOT_(ptr noundef nonnull align 8 dereferenceable(24) %11, ptr %4, ptr noundef nonnull align 8 dereferenceable(8) %1)
  br label %_ZNSt6vectorISt10unique_ptrIN29cmInstallRuntimeDependencySet4ItemESt14default_deleteIS2_EESaIS5_EE9push_backEOS5_.exit

_ZNSt6vectorISt10unique_ptrIN29cmInstallRuntimeDependencySet4ItemESt14default_deleteIS2_EESaIS5_EE9push_backEOS5_.exit: ; preds = %7, %10
  ret void
}